target datalayout = "e-m:e-p270:32:32-p271:32:32-p272:64:64-i64:64-i128:128-f80:128-n8:16:32:64-S128"
target triple = "x86_64-unknown-linux-gnu"

%struct.QEnumLookup = type { ptr, ptr, i32 }
%struct.VFIODevice = type { %struct.anon, %struct.anon.0, %struct.anon.1, ptr, ptr, ptr, ptr, ptr, i32, i32, i8, i8, i8, i8, i32, ptr, i32, i32, i32, ptr, ptr, i32, i8, i8 }
%struct.anon = type { ptr, ptr }
%struct.anon.0 = type { ptr, ptr }
%struct.anon.1 = type { ptr, ptr }
%struct.VFIOMigration = type { ptr, ptr, %struct.Notifier, i32, i32, ptr, i64, i64, i64, i64, i8 }
%struct.Notifier = type { ptr, %struct.anon.2 }
%struct.anon.2 = type { ptr, ptr }
%struct.MigrationState = type { %struct.DeviceState, %struct.QemuThread, ptr, ptr, ptr, ptr, %struct.QemuSemaphore, ptr, %struct.QemuMutex, %struct.QemuSemaphore, i64, double, i64, i64, i64, %struct.MigrationParameters, i32, %struct.anon.4, double, i64, i64, i64, i64, i64, [23 x i8], i64, i32, i8, i8, i8, i8, %struct.QemuSemaphore, %struct.QemuSemaphore, %struct.QemuSemaphore, %struct.QemuEvent, i64, ptr, ptr, %struct.QemuMutex, i8, i8, i8, i8, %struct.QemuSemaphore, i8, i8, i8, i8, ptr, ptr, i8, i8 }
%struct.DeviceState = type { %struct.Object, ptr, ptr, i8, i8, i64, ptr, i32, i8, ptr, %struct.NamedGPIOListHead, %struct.NamedClockListHead, %struct.BusStateHead, i32, i32, i32, %struct.ResettableState, ptr, %struct.MemReentrancyGuard }
%struct.Object = type { ptr, ptr, ptr, i32, ptr }
%struct.NamedGPIOListHead = type { ptr }
%struct.NamedClockListHead = type { ptr }
%struct.BusStateHead = type { ptr }
%struct.ResettableState = type { i32, i8, i8 }
%struct.MemReentrancyGuard = type { i8 }
%struct.QemuThread = type { i64 }
%struct.MigrationParameters = type { i8, i64, i8, i64, i8, i64, i8, i64, i8, i8, i8, i8, i8, i8, i8, i8, i8, i8, i8, i8, i8, i8, i8, i8, ptr, ptr, ptr, i8, i64, i8, i64, i8, i64, i8, i32, i8, i8, i8, i8, i8, i64, i8, i64, i8, i8, i8, i32, i8, i8, i8, i8, i8, ptr, i8, i64, i8, i64, i8, i32 }
%struct.anon.4 = type { ptr, %struct.QemuThread, i8, %struct.QemuSemaphore, %struct.QemuSemaphore }
%struct.QemuEvent = type { i32, i8 }
%struct.QemuMutex = type { %union.pthread_mutex_t, i8 }
%union.pthread_mutex_t = type { %struct.__pthread_mutex_s }
%struct.__pthread_mutex_s = type { i32, i32, i32, i32, i32, i16, i16, %struct.__pthread_internal_list }
%struct.__pthread_internal_list = type { ptr, ptr }
%struct.QemuSemaphore = type { %struct.QemuMutex, %struct.QemuCond, i32 }
%struct.QemuCond = type { %union.pthread_cond_t, i8 }
%union.pthread_cond_t = type { %struct.__pthread_cond_s }
%struct.__pthread_cond_s = type { %union.__atomic_wide_counter, %union.__atomic_wide_counter, [2 x i32], [2 x i32], i32, i32, [2 x i32] }
%union.__atomic_wide_counter = type { i64 }
%struct.timeval = type { i64, i64 }

@trace_events_enabled_count = external global i32, align 4
@message_with_timestamp = external global i8, align 1
@qemu_loglevel = external global i32, align 4
@MigrationStatus_lookup = external constant %struct.QEnumLookup, align 8
@_TRACE_VFIO_MIGRATION_STATE_NOTIFIER_DSTATE = external global i16, align 2
@.str.66 = private unnamed_addr constant [59 x i8] c"%d@%zu.%06zu:vfio_migration_state_notifier  (%s) state %s\0A\00", align 1
@.str.67 = private unnamed_addr constant [46 x i8] c"vfio_migration_state_notifier  (%s) state %s\0A\00", align 1

; Function Attrs: nounwind sspstrong uwtable
define internal zeroext i1 @qemu_loglevel_mask(i32 noundef %mask) #0 {
entry:
  %mask.addr = alloca i32, align 4
  store i32 %mask, ptr %mask.addr, align 4
  %0 = load i32, ptr @qemu_loglevel, align 4
  %1 = load i32, ptr %mask.addr, align 4
  %and = and i32 %0, %1
  %cmp = icmp ne i32 %and, 0
  ret i1 %cmp
}

; Function Attrs: nounwind sspstrong uwtable
define internal void @_nocheck__trace_vfio_migration_state_notifier(ptr noundef %name, ptr noundef %state) #0 {
entry:
  %name.addr = alloca ptr, align 8
  %state.addr = alloca ptr, align 8
  %_now = alloca %struct.timeval, align 8
  store ptr %name, ptr %name.addr, align 8
  store ptr %state, ptr %state.addr, align 8
  %0 = load i32, ptr @trace_events_enabled_count, align 4
  %tobool = icmp ne i32 %0, 0
  %lnot = xor i1 %tobool, true
  %lnot1 = xor i1 %lnot, true
  %lnot.ext = zext i1 %lnot1 to i32
  %conv = sext i32 %lnot.ext to i64
  %tobool2 = icmp ne i64 %conv, 0
  br i1 %tobool2, label %land.lhs.true, label %if.end11

land.lhs.true:                                    ; preds = %entry
  %1 = load i16, ptr @_TRACE_VFIO_MIGRATION_STATE_NOTIFIER_DSTATE, align 2
  %conv3 = zext i16 %1 to i32
  %tobool4 = icmp ne i32 %conv3, 0
  br i1 %tobool4, label %land.lhs.true5, label %if.end11

land.lhs.true5:                                   ; preds = %land.lhs.true
  %call = call zeroext i1 @qemu_loglevel_mask(i32 noundef 32768)
  br i1 %call, label %if.then, label %if.end11

if.then:                                          ; preds = %land.lhs.true5
  %2 = load i8, ptr @message_with_timestamp, align 1
  %tobool7 = trunc i8 %2 to i1
  br i1 %tobool7, label %if.then8, label %if.else

if.then8:                                         ; preds = %if.then
  %call9 = call i32 @gettimeofday(ptr noundef %_now, ptr noundef null) #9
  %call10 = call i32 @qemu_get_thread_id()
  %tv_sec = getelementptr inbounds %struct.timeval, ptr %_now, i32 0, i32 0
  %3 = load i64, ptr %tv_sec, align 8
  %tv_usec = getelementptr inbounds %struct.timeval, ptr %_now, i32 0, i32 1
  %4 = load i64, ptr %tv_usec, align 8
  %5 = load ptr, ptr %name.addr, align 8
  %6 = load ptr, ptr %state.addr, align 8
  call void (ptr, ...) @qemu_log(ptr noundef @.str.66, i32 noundef %call10, i64 noundef %3, i64 noundef %4, ptr noundef %5, ptr noundef %6)
  br label %if.end

if.else:                                          ; preds = %if.then
  %7 = load ptr, ptr %name.addr, align 8
  %8 = load ptr, ptr %state.addr, align 8
  call void (ptr, ...) @qemu_log(ptr noundef @.str.67, ptr noundef %7, ptr noundef %8)
  br label %if.end

if.end:                                           ; preds = %if.else, %if.then8
  br label %if.end11

if.end11:                                         ; preds = %if.end, %land.lhs.true5, %land.lhs.true, %entry
  ret void
}

; Function Attrs: nounwind sspstrong uwtable
define internal void @trace_vfio_migration_state_notifier(ptr noundef %name, ptr noundef %state) #0 {
entry:
  %name.addr = alloca ptr, align 8
  %state.addr = alloca ptr, align 8
  store ptr %name, ptr %name.addr, align 8
  store ptr %state, ptr %state.addr, align 8
  %0 = load ptr, ptr %name.addr, align 8
  %1 = load ptr, ptr %state.addr, align 8
  call void @_nocheck__trace_vfio_migration_state_notifier(ptr noundef %0, ptr noundef %1)
  ret void
}

; Function Attrs: nounwind sspstrong uwtable
define internal void @vfio_migration_state_notifier(ptr noundef %notifier, ptr noundef %data) #0 {
entry:
  %notifier.addr = alloca ptr, align 8
  %data.addr = alloca ptr, align 8
  %s = alloca ptr, align 8
  %migration = alloca ptr, align 8
  %__mptr = alloca ptr, align 8
  %tmp = alloca ptr, align 8
  %vbasedev = alloca ptr, align 8
  store ptr %notifier, ptr %notifier.addr, align 8
  store ptr %data, ptr %data.addr, align 8
  %0 = load ptr, ptr %data.addr, align 8
  store ptr %0, ptr %s, align 8
  %1 = load ptr, ptr %notifier.addr, align 8
  store ptr %1, ptr %__mptr, align 8
  %2 = load ptr, ptr %__mptr, align 8
  %add.ptr = getelementptr i8, ptr %2, i64 -16
  store ptr %add.ptr, ptr %tmp, align 8
  %3 = load ptr, ptr %tmp, align 8
  store ptr %3, ptr %migration, align 8
  %4 = load ptr, ptr %migration, align 8
  %vbasedev1 = getelementptr inbounds %struct.VFIOMigration, ptr %4, i32 0, i32 0
  %5 = load ptr, ptr %vbasedev1, align 8
  store ptr %5, ptr %vbasedev, align 8
  %6 = load ptr, ptr %vbasedev, align 8
  %name = getelementptr inbounds %struct.VFIODevice, ptr %6, i32 0, i32 6
  %7 = load ptr, ptr %name, align 8
  %8 = load ptr, ptr %s, align 8
  %state = getelementptr inbounds %struct.MigrationState, ptr %8, i32 0, i32 16
  %9 = load i32, ptr %state, align 8
  %call = call ptr @qapi_enum_lookup(ptr noundef @MigrationStatus_lookup, i32 noundef %9)
  call void @trace_vfio_migration_state_notifier(ptr noundef %7, ptr noundef %call)
  %10 = load ptr, ptr %s, align 8
  %state2 = getelementptr inbounds %struct.MigrationState, ptr %10, i32 0, i32 16
  %11 = load i32, ptr %state2, align 8
  switch i32 %11, label %sw.epilog [
    i32 2, label %sw.bb
    i32 3, label %sw.bb
    i32 9, label %sw.bb
  ]

sw.bb:                                            ; preds = %entry, %entry, %entry
  %12 = load ptr, ptr %vbasedev, align 8
  %call3 = call i32 @vfio_migration_set_state(ptr noundef %12, i32 noundef 2, i32 noundef 0)
  br label %sw.epilog

sw.epilog:                                        ; preds = %sw.bb, %entry
  ret void
}