; Function Attrs: nounwind sspstrong uwtable
define internal void @vfio_migration_state_notifier(ptr noundef readonly captures(none) %notifier, ptr noundef readonly captures(none) %data) #2 {
entry:
  %_now.i.i = alloca %struct.timeval, align 8
  %add.ptr = getelementptr i8, ptr %notifier, i64 -16
  %0 = load ptr, ptr %add.ptr, align 8
  %name = getelementptr inbounds nuw i8, ptr %0, i64 72
  %1 = load ptr, ptr %name, align 8
  %state = getelementptr inbounds nuw i8, ptr %data, i64 776
  %2 = load i32, ptr %state, align 8
  %call = tail call ptr @qapi_enum_lookup(ptr noundef nonnull @MigrationStatus_lookup, i32 noundef %2) #16
  call void @llvm.lifetime.start.p0(i64 16, ptr nonnull %_now.i.i)
  %3 = load i32, ptr @trace_events_enabled_count, align 4
  %tobool.i.i = icmp ne i32 %3, 0
  %4 = load i16, ptr @_TRACE_VFIO_MIGRATION_STATE_NOTIFIER_DSTATE, align 2
  %tobool4.i.i = icmp ne i16 %4, 0
  %or.cond.i.i = select i1 %tobool.i.i, i1 %tobool4.i.i, i1 false
  br i1 %or.cond.i.i, label %land.lhs.true5.i.i, label %trace_vfio_migration_state_notifier.exit

land.lhs.true5.i.i:                               ; preds = %entry
  %5 = load i32, ptr @qemu_loglevel, align 4
  %and.i.i.i = and i32 %5, 32768
  %cmp.i.not.i.i = icmp eq i32 %and.i.i.i, 0
  br i1 %cmp.i.not.i.i, label %trace_vfio_migration_state_notifier.exit, label %if.then.i.i

if.then.i.i:                                      ; preds = %land.lhs.true5.i.i
  %6 = load i8, ptr @message_with_timestamp, align 1
  %tobool7.i.i = trunc i8 %6 to i1
  br i1 %tobool7.i.i, label %if.then8.i.i, label %if.else.i.i

if.then8.i.i:                                     ; preds = %if.then.i.i
  %call9.i.i = call i32 @gettimeofday(ptr noundef nonnull %_now.i.i, ptr noundef null) #16
  %call10.i.i = tail call i32 @qemu_get_thread_id() #16
  %7 = load i64, ptr %_now.i.i, align 8
  %tv_usec.i.i = getelementptr inbounds nuw i8, ptr %_now.i.i, i64 8
  %8 = load i64, ptr %tv_usec.i.i, align 8
  tail call void (ptr, ...) @qemu_log(ptr noundef nonnull @.str.66, i32 noundef %call10.i.i, i64 noundef %7, i64 noundef %8, ptr noundef %1, ptr noundef %call) #16
  br label %trace_vfio_migration_state_notifier.exit

if.else.i.i:                                      ; preds = %if.then.i.i
  tail call void (ptr, ...) @qemu_log(ptr noundef nonnull @.str.67, ptr noundef %1, ptr noundef %call) #16
  br label %trace_vfio_migration_state_notifier.exit

trace_vfio_migration_state_notifier.exit:         ; preds = %entry, %land.lhs.true5.i.i, %if.then8.i.i, %if.else.i.i
  call void @llvm.lifetime.end.p0(i64 16, ptr nonnull %_now.i.i)
  %9 = load i32, ptr %state, align 8
  switch i32 %9, label %sw.epilog [
    i32 2, label %sw.bb
    i32 3, label %sw.bb
    i32 9, label %sw.bb
  ]

sw.bb:                                            ; preds = %trace_vfio_migration_state_notifier.exit, %trace_vfio_migration_state_notifier.exit, %trace_vfio_migration_state_notifier.exit
  %call3 = tail call fastcc i32 @vfio_migration_set_state(ptr noundef nonnull %0, i32 noundef 2, i32 noundef 0)
  br label %sw.epilog

sw.epilog:                                        ; preds = %sw.bb, %trace_vfio_migration_state_notifier.exit
  ret void
}